target datalayout = "e-m:e-p270:32:32-p271:32:32-p272:64:64-i64:64-i128:128-f80:128-n8:16:32:64-S128"
target triple = "x86_64-pc-linux-gnu"

%struct.RelFileLocator = type { i32, i32, i32 }
%struct.xl_invalidations = type { i32, i32, i8, i32, [0 x %union.SharedInvalidationMessage] }
%union.SharedInvalidationMessage = type { %struct.SharedInvalSmgrMsg }
%struct.SharedInvalSmgrMsg = type { i8, i8, i16, %struct.RelFileLocator }

@MyDatabaseId = external global i32, align 4
@MyDatabaseTableSpace = external global i32, align 4

; Function Attrs: nounwind uwtable
define dso_local void @LogStandbyInvalidations(i32 noundef %0, ptr noundef %1, i1 noundef zeroext %2) #0 {
  %4 = alloca i32, align 4
  %5 = alloca ptr, align 8
  %6 = alloca i8, align 1
  %7 = alloca %struct.xl_invalidations, align 4
  store i32 %0, ptr %4, align 4
  store ptr %1, ptr %5, align 8
  %8 = zext i1 %2 to i8
  store i8 %8, ptr %6, align 1
  call void @llvm.lifetime.start.p0(i64 16, ptr %7) #8
  call void @llvm.memset.p0.i64(ptr align 4 %7, i8 0, i64 16, i1 false)
  %9 = load i32, ptr @MyDatabaseId, align 4
  %10 = getelementptr inbounds nuw %struct.xl_invalidations, ptr %7, i32 0, i32 0
  store i32 %9, ptr %10, align 4
  %11 = load i32, ptr @MyDatabaseTableSpace, align 4
  %12 = getelementptr inbounds nuw %struct.xl_invalidations, ptr %7, i32 0, i32 1
  store i32 %11, ptr %12, align 4
  %13 = load i8, ptr %6, align 1, !range !7, !noundef !8
  %14 = trunc i8 %13 to i1
  %15 = getelementptr inbounds nuw %struct.xl_invalidations, ptr %7, i32 0, i32 2
  %16 = zext i1 %14 to i8
  store i8 %16, ptr %15, align 4
  %17 = load i32, ptr %4, align 4
  %18 = getelementptr inbounds nuw %struct.xl_invalidations, ptr %7, i32 0, i32 3
  store i32 %17, ptr %18, align 4
  call void @XLogBeginInsert()
  call void @XLogRegisterData(ptr noundef %7, i32 noundef 16)
  %19 = load ptr, ptr %5, align 8
  %20 = load i32, ptr %4, align 4
  %21 = sext i32 %20 to i64
  %22 = mul i64 %21, 16
  %23 = trunc i64 %22 to i32
  call void @XLogRegisterData(ptr noundef %19, i32 noundef %23)
  %24 = call i64 @XLogInsert(i8 noundef zeroext 8, i8 noundef zeroext 32)
  call void @llvm.lifetime.end.p0(i64 16, ptr %7) #8
  ret void
}