; Function Attrs: nounwind uwtable
define dso_local void @LogStandbyInvalidations(i32 noundef %0, ptr noundef %1, i1 noundef zeroext %2) local_unnamed_addr #0 {
  %4 = alloca %struct.xl_invalidations, align 4
  %5 = zext i1 %2 to i8
  call void @llvm.lifetime.start.p0(i64 16, ptr nonnull %4) #7
  %6 = getelementptr inbounds nuw i8, ptr %4, i64 8
  store i32 0, ptr %6, align 4
  %7 = load i32, ptr @MyDatabaseId, align 4
  store i32 %7, ptr %4, align 4
  %8 = load i32, ptr @MyDatabaseTableSpace, align 4
  %9 = getelementptr inbounds nuw i8, ptr %4, i64 4
  store i32 %8, ptr %9, align 4
  %10 = getelementptr inbounds nuw i8, ptr %4, i64 8
  store i8 %5, ptr %10, align 4
  %11 = getelementptr inbounds nuw i8, ptr %4, i64 12
  store i32 %0, ptr %11, align 4
  tail call void @XLogBeginInsert() #7
  call void @XLogRegisterData(ptr noundef nonnull %4, i32 noundef 16) #7
  %12 = shl i32 %0, 4
  call void @XLogRegisterData(ptr noundef %1, i32 noundef %12) #7
  %13 = call i64 @XLogInsert(i8 noundef zeroext 8, i8 noundef zeroext 32) #7
  call void @llvm.lifetime.end.p0(i64 16, ptr nonnull %4) #7
  ret void
}